target datalayout = "e-m:e-p270:32:32-p271:32:32-p272:64:64-i64:64-i128:128-f80:128-n8:16:32:64-S128"
target triple = "x86_64-pc-linux-gnu"

%class.LogTagSet = type { ptr, i64, [5 x i32], [4 x i8], %class.LogOutputList, %class.LogDecorators, ptr }
%class.LogOutputList = type <{ [6 x ptr], i32, [4 x i8] }>
%class.LogDecorators = type { i32 }

@_ZN10HeapShared12_alloc_countE = hidden global [16 x i64] zeroinitializer, align 16
@_ZN10HeapShared11_alloc_sizeE = hidden global [16 x i64] zeroinitializer, align 16
@_ZN10HeapShared16_total_obj_countE = hidden global i64 0, align 8
@_ZN10HeapShared15_total_obj_sizeE = hidden global i64 0, align 8
@.str.86 = private unnamed_addr constant [68 x i8] c"%8lu objects are <= %-6lu bytes (total %8lu bytes, avg %8.1f bytes)\00", align 1
@.str.87 = private unnamed_addr constant [69 x i8] c"%8lu huge  objects               (total %8lu bytes, avg %8.1f bytes)\00", align 1
@.str.88 = private unnamed_addr constant [69 x i8] c"%8lu total objects               (total %8lu bytes, avg %8.1f bytes)\00", align 1
@_ZN16LogTagSetMappingILN6LogTag4typeE14ELS1_52ELS1_0ELS1_0ELS1_0ELS1_0EE7_tagsetE = linkonce_odr hidden global %class.LogTagSet zeroinitializer, comdat, align 8

; Function Attrs: mustprogress nounwind uwtable
define linkonce_odr hidden noundef zeroext i1 @_ZNK13LogOutputList8is_levelEN8LogLevel4typeE(ptr noundef nonnull align 8 dereferenceable(52) %0, i32 noundef %1) #1 comdat align 2 {
  %3 = alloca ptr, align 8
  %4 = alloca i32, align 4
  store ptr %0, ptr %3, align 8
  store i32 %1, ptr %4, align 4
  %5 = load ptr, ptr %3, align 8
  %6 = getelementptr inbounds %class.LogOutputList, ptr %5, i32 0, i32 0
  %7 = load i32, ptr %4, align 4
  %8 = zext i32 %7 to i64
  %9 = getelementptr inbounds [6 x ptr], ptr %6, i64 0, i64 %8
  %10 = load volatile ptr, ptr %9, align 8
  %11 = icmp ne ptr %10, null
  ret i1 %11
}

; Function Attrs: mustprogress nounwind uwtable
define linkonce_odr hidden noundef zeroext i1 @_ZNK9LogTagSet8is_levelEN8LogLevel4typeE(ptr noundef nonnull align 8 dereferenceable(112) %0, i32 noundef %1) #1 comdat align 2 {
  %3 = alloca ptr, align 8
  %4 = alloca i32, align 4
  store ptr %0, ptr %3, align 8
  store i32 %1, ptr %4, align 4
  %5 = load ptr, ptr %3, align 8
  %6 = getelementptr inbounds %class.LogTagSet, ptr %5, i32 0, i32 4
  %7 = load i32, ptr %4, align 4
  %8 = call noundef zeroext i1 @_ZNK13LogOutputList8is_levelEN8LogLevel4typeE(ptr noundef nonnull align 8 dereferenceable(52) %6, i32 noundef %7)
  ret i1 %8
}

; Function Attrs: mustprogress nounwind uwtable
define linkonce_odr hidden noundef nonnull align 8 dereferenceable(112) ptr @_ZN16LogTagSetMappingILN6LogTag4typeE14ELS1_52ELS1_0ELS1_0ELS1_0ELS1_0EE6tagsetEv() #1 comdat align 2 {
  ret ptr @_ZN16LogTagSetMappingILN6LogTag4typeE14ELS1_52ELS1_0ELS1_0ELS1_0ELS1_0EE7_tagsetE
}

; Function Attrs: mustprogress nounwind uwtable
define internal noundef double @_ZL8avg_sizemm(i64 noundef %0, i64 noundef %1) #1 {
  %3 = alloca i64, align 8
  %4 = alloca i64, align 8
  %5 = alloca double, align 8
  store i64 %0, ptr %3, align 8
  store i64 %1, ptr %4, align 8
  store double 0.000000e+00, ptr %5, align 8
  %6 = load i64, ptr %4, align 8
  %7 = icmp ugt i64 %6, 0
  br i1 %7, label %8, label %15

8:                                                ; preds = %2
  %9 = load i64, ptr %3, align 8
  %10 = mul i64 %9, 8
  %11 = uitofp i64 %10 to double
  %12 = load i64, ptr %4, align 8
  %13 = uitofp i64 %12 to double
  %14 = fdiv double %11, %13
  store double %14, ptr %5, align 8
  br label %15

15:                                               ; preds = %8, %2
  %16 = load double, ptr %5, align 8
  ret double %16
}

; Function Attrs: mustprogress nounwind uwtable
define linkonce_odr hidden noundef zeroext i1 @_ZN7LogImplILN6LogTag4typeE14ELS1_52ELS1_0ELS1_0ELS1_0ELS1_0EE8is_levelEN8LogLevel4typeE(i32 noundef %0) #1 comdat align 2 {
  %2 = alloca i32, align 4
  store i32 %0, ptr %2, align 4
  %3 = call noundef nonnull align 8 dereferenceable(112) ptr @_ZN16LogTagSetMappingILN6LogTag4typeE14ELS1_52ELS1_0ELS1_0ELS1_0ELS1_0EE6tagsetEv()
  %4 = load i32, ptr %2, align 4
  %5 = call noundef zeroext i1 @_ZNK9LogTagSet8is_levelEN8LogLevel4typeE(ptr noundef nonnull align 8 dereferenceable(112) %3, i32 noundef %4)
  ret i1 %5
}

; Function Attrs: mustprogress nounwind uwtable
define hidden void @_ZN10HeapShared11print_statsEv() #1 align 2 {
  %1 = alloca i64, align 8
  %2 = alloca i64, align 8
  %3 = alloca i32, align 4
  %4 = alloca i64, align 8
  %5 = alloca i64, align 8
  %6 = alloca i64, align 8
  %7 = load i64, ptr @_ZN10HeapShared16_total_obj_countE, align 8
  store i64 %7, ptr %1, align 8
  %8 = load i64, ptr @_ZN10HeapShared15_total_obj_sizeE, align 8
  store i64 %8, ptr %2, align 8
  store i32 0, ptr %3, align 4
  br label %9

9:                                                ; preds = %42, %0
  %10 = load i32, ptr %3, align 4
  %11 = icmp slt i32 %10, 16
  br i1 %11, label %12, label %45

12:                                               ; preds = %9
  %13 = load i32, ptr %3, align 4
  %14 = zext i32 %13 to i64
  %15 = shl i64 1, %14
  %16 = mul i64 %15, 8
  store i64 %16, ptr %4, align 8
  %17 = load i32, ptr %3, align 4
  %18 = sext i32 %17 to i64
  %19 = getelementptr inbounds [16 x i64], ptr @_ZN10HeapShared12_alloc_countE, i64 0, i64 %18
  %20 = load i64, ptr %19, align 8
  store i64 %20, ptr %5, align 8
  %21 = load i32, ptr %3, align 4
  %22 = sext i32 %21 to i64
  %23 = getelementptr inbounds [16 x i64], ptr @_ZN10HeapShared11_alloc_sizeE, i64 0, i64 %22
  %24 = load i64, ptr %23, align 8
  store i64 %24, ptr %6, align 8
  %25 = call noundef zeroext i1 @_ZN7LogImplILN6LogTag4typeE14ELS1_52ELS1_0ELS1_0ELS1_0ELS1_0EE8is_levelEN8LogLevel4typeE(i32 noundef 3)
  br i1 %25, label %27, label %26

26:                                               ; preds = %12
  br label %35

27:                                               ; preds = %12
  %28 = load i64, ptr %5, align 8
  %29 = load i64, ptr %4, align 8
  %30 = load i64, ptr %6, align 8
  %31 = mul i64 %30, 8
  %32 = load i64, ptr %6, align 8
  %33 = load i64, ptr %5, align 8
  %34 = call noundef double @_ZL8avg_sizemm(i64 noundef %32, i64 noundef %33)
  call void (ptr, ...) @_ZN7LogImplILN6LogTag4typeE14ELS1_52ELS1_0ELS1_0ELS1_0ELS1_0EE5writeILN8LogLevel4typeE3EEEvPKcz(ptr noundef @.str.86, i64 noundef %28, i64 noundef %29, i64 noundef %31, double noundef %34)
  br label %35

35:                                               ; preds = %27, %26
  %36 = load i64, ptr %5, align 8
  %37 = load i64, ptr %1, align 8
  %38 = sub i64 %37, %36
  store i64 %38, ptr %1, align 8
  %39 = load i64, ptr %6, align 8
  %40 = load i64, ptr %2, align 8
  %41 = sub i64 %40, %39
  store i64 %41, ptr %2, align 8
  br label %42

42:                                               ; preds = %35
  %43 = load i32, ptr %3, align 4
  %44 = add nsw i32 %43, 1
  store i32 %44, ptr %3, align 4
  br label %9, !llvm.loop !19

45:                                               ; preds = %9
  %46 = call noundef zeroext i1 @_ZN7LogImplILN6LogTag4typeE14ELS1_52ELS1_0ELS1_0ELS1_0ELS1_0EE8is_levelEN8LogLevel4typeE(i32 noundef 3)
  br i1 %46, label %48, label %47

47:                                               ; preds = %45
  br label %55

48:                                               ; preds = %45
  %49 = load i64, ptr %1, align 8
  %50 = load i64, ptr %2, align 8
  %51 = mul i64 %50, 8
  %52 = load i64, ptr %2, align 8
  %53 = load i64, ptr %1, align 8
  %54 = call noundef double @_ZL8avg_sizemm(i64 noundef %52, i64 noundef %53)
  call void (ptr, ...) @_ZN7LogImplILN6LogTag4typeE14ELS1_52ELS1_0ELS1_0ELS1_0ELS1_0EE5writeILN8LogLevel4typeE3EEEvPKcz(ptr noundef @.str.87, i64 noundef %49, i64 noundef %51, double noundef %54)
  br label %55

55:                                               ; preds = %48, %47
  %56 = call noundef zeroext i1 @_ZN7LogImplILN6LogTag4typeE14ELS1_52ELS1_0ELS1_0ELS1_0ELS1_0EE8is_levelEN8LogLevel4typeE(i32 noundef 3)
  br i1 %56, label %58, label %57

57:                                               ; preds = %55
  br label %65

58:                                               ; preds = %55
  %59 = load i64, ptr @_ZN10HeapShared16_total_obj_countE, align 8
  %60 = load i64, ptr @_ZN10HeapShared15_total_obj_sizeE, align 8
  %61 = mul i64 %60, 8
  %62 = load i64, ptr @_ZN10HeapShared15_total_obj_sizeE, align 8
  %63 = load i64, ptr @_ZN10HeapShared16_total_obj_countE, align 8
  %64 = call noundef double @_ZL8avg_sizemm(i64 noundef %62, i64 noundef %63)
  call void (ptr, ...) @_ZN7LogImplILN6LogTag4typeE14ELS1_52ELS1_0ELS1_0ELS1_0ELS1_0EE5writeILN8LogLevel4typeE3EEEvPKcz(ptr noundef @.str.88, i64 noundef %59, i64 noundef %61, double noundef %64)
  br label %65

65:                                               ; preds = %58, %57
  ret void
}