; Function Attrs: mustprogress nounwind uwtable
define hidden void @_ZN10HeapShared11print_statsEv() local_unnamed_addr #2 align 2 {
  %1 = load i64, ptr @_ZN10HeapShared16_total_obj_countE, align 8
  %2 = load i64, ptr @_ZN10HeapShared15_total_obj_sizeE, align 8
  br label %3

3:                                                ; preds = %0, %15
  %indvars.iv = phi i64 [ 0, %0 ], [ %indvars.iv.next, %15 ]
  %.028 = phi i64 [ %1, %0 ], [ %16, %15 ]
  %.01827 = phi i64 [ %2, %0 ], [ %17, %15 ]
  %4 = getelementptr inbounds [16 x i64], ptr @_ZN10HeapShared12_alloc_countE, i64 0, i64 %indvars.iv
  %5 = load i64, ptr %4, align 8
  %6 = getelementptr inbounds [16 x i64], ptr @_ZN10HeapShared11_alloc_sizeE, i64 0, i64 %indvars.iv
  %7 = load i64, ptr %6, align 8
  %8 = load volatile ptr, ptr getelementptr inbounds (i8, ptr @_ZN16LogTagSetMappingILN6LogTag4typeE14ELS1_52ELS1_0ELS1_0ELS1_0ELS1_0EE7_tagsetE, i64 64), align 8
  %.not25 = icmp eq ptr %8, null
  br i1 %.not25, label %15, label %9

9:                                                ; preds = %3
  %10 = shl nuw nsw i64 8, %indvars.iv
  %11 = shl i64 %7, 3
  %.not.i = icmp eq i64 %5, 0
  %12 = uitofp i64 %11 to double
  %13 = uitofp i64 %5 to double
  %14 = fdiv double %12, %13
  %.0.i = select i1 %.not.i, double 0.000000e+00, double %14
  tail call void (ptr, ...) @_ZN7LogImplILN6LogTag4typeE14ELS1_52ELS1_0ELS1_0ELS1_0ELS1_0EE5writeILN8LogLevel4typeE3EEEvPKcz(ptr noundef nonnull @.str.86, i64 noundef %5, i64 noundef %10, i64 noundef %11, double noundef %.0.i)
  br label %15

15:                                               ; preds = %3, %9
  %16 = sub i64 %.028, %5
  %17 = sub i64 %.01827, %7
  %indvars.iv.next = add nuw nsw i64 %indvars.iv, 1
  %exitcond.not = icmp eq i64 %indvars.iv.next, 16
  br i1 %exitcond.not, label %18, label %3, !llvm.loop !38

18:                                               ; preds = %15
  %19 = load volatile ptr, ptr getelementptr inbounds (i8, ptr @_ZN16LogTagSetMappingILN6LogTag4typeE14ELS1_52ELS1_0ELS1_0ELS1_0ELS1_0EE7_tagsetE, i64 64), align 8
  %.not = icmp eq ptr %19, null
  br i1 %.not, label %25, label %20

20:                                               ; preds = %18
  %21 = shl i64 %17, 3
  %.not.i20 = icmp eq i64 %16, 0
  %22 = uitofp i64 %21 to double
  %23 = uitofp i64 %16 to double
  %24 = fdiv double %22, %23
  %.0.i21 = select i1 %.not.i20, double 0.000000e+00, double %24
  tail call void (ptr, ...) @_ZN7LogImplILN6LogTag4typeE14ELS1_52ELS1_0ELS1_0ELS1_0ELS1_0EE5writeILN8LogLevel4typeE3EEEvPKcz(ptr noundef nonnull @.str.87, i64 noundef %16, i64 noundef %21, double noundef %.0.i21)
  br label %25

25:                                               ; preds = %18, %20
  %26 = load volatile ptr, ptr getelementptr inbounds (i8, ptr @_ZN16LogTagSetMappingILN6LogTag4typeE14ELS1_52ELS1_0ELS1_0ELS1_0ELS1_0EE7_tagsetE, i64 64), align 8
  %.not24 = icmp eq ptr %26, null
  br i1 %.not24, label %34, label %27

27:                                               ; preds = %25
  %28 = load i64, ptr @_ZN10HeapShared16_total_obj_countE, align 8
  %29 = load i64, ptr @_ZN10HeapShared15_total_obj_sizeE, align 8
  %30 = shl i64 %29, 3
  %.not.i22 = icmp eq i64 %28, 0
  %31 = uitofp i64 %30 to double
  %32 = uitofp i64 %28 to double
  %33 = fdiv double %31, %32
  %.0.i23 = select i1 %.not.i22, double 0.000000e+00, double %33
  tail call void (ptr, ...) @_ZN7LogImplILN6LogTag4typeE14ELS1_52ELS1_0ELS1_0ELS1_0ELS1_0EE5writeILN8LogLevel4typeE3EEEvPKcz(ptr noundef nonnull @.str.88, i64 noundef %28, i64 noundef %30, double noundef %.0.i23)
  br label %34

34:                                               ; preds = %25, %27
  ret void
}